target datalayout = "e-m:e-p270:32:32-p271:32:32-p272:64:64-i64:64-i128:128-f80:128-n8:16:32:64-S128"
target triple = "x86_64-pc-linux-gnu"

%struct.darktable_t = type { %struct.dt_codepath_t, i32, i32, ptr, ptr, ptr, ptr, ptr, ptr, ptr, ptr, ptr, ptr, ptr, ptr, ptr, ptr, ptr, ptr, ptr, ptr, ptr, ptr, ptr, ptr, ptr, ptr, ptr, ptr, ptr, [64 x %struct.dt_pthread_mutex_t], %struct.dt_pthread_mutex_t, %struct.dt_pthread_mutex_t, %struct.dt_pthread_mutex_t, %struct.dt_pthread_mutex_t, %struct.dt_pthread_mutex_t, ptr, ptr, ptr, ptr, ptr, ptr, ptr, ptr, ptr, ptr, ptr, ptr, ptr, %struct.dt_lua_state_t, ptr, double, ptr, i32, [47 x i32], i32, i32, ptr, ptr, %struct.dt_sys_resources_t, %struct.dt_backthumb_t, %struct.dt_gimp_t }
%struct.dt_codepath_t = type { i8, [3 x i8] }
%struct.dt_pthread_mutex_t = type { %union.pthread_mutex_t }
%union.pthread_mutex_t = type { %struct.__pthread_mutex_s }
%struct.__pthread_mutex_s = type { i32, i32, i32, i32, i32, i16, i16, %struct.__pthread_internal_list }
%struct.__pthread_internal_list = type { ptr, ptr }
%struct.dt_lua_state_t = type { i32 }
%struct.dt_sys_resources_t = type { i64, i64, ptr, ptr, i32 }
%struct.dt_backthumb_t = type { double, double, i32, i32, i32, i32 }
%struct.dt_gimp_t = type { i32, ptr, ptr, i32, i32 }
%struct.dt_selection_t = type { ptr, i32 }
%struct._GList = type { ptr, ptr, ptr }

@darktable = external global %struct.darktable_t, align 8
@.str.3 = private unnamed_addr constant [120 x i8] c"generated/home/dtcxzyw/WorkSpace/Projects/compilers/llvm-opt-benchmark/bench/darktable/darktable/src/common/selection.c\00", align 1
@.str.5 = private unnamed_addr constant [38 x i8] c"[sql] %s:%d, function %s(): exec \22%s\22\00", align 1
@stderr = external global ptr, align 8
@.str.7 = private unnamed_addr constant [53 x i8] c"sqlite3 error: %s:%d, function %s(), query \22%s\22: %s\0A\00", align 1
@.str.19 = private unnamed_addr constant [63 x i8] c"INSERT OR IGNORE INTO main.selected_images (imgid) VALUES (%d)\00", align 1
@.str.20 = private unnamed_addr constant [6 x i8] c",(%d)\00", align 1
@__FUNCTION__.dt_selection_select_list = private unnamed_addr constant [25 x i8] c"dt_selection_select_list\00", align 1
@.str.26 = private unnamed_addr constant [40 x i8] c"[signal] raise %s; %s:%d, function %s()\00", align 1
@.str.27 = private unnamed_addr constant [28 x i8] c"DT_SIGNAL_SELECTION_CHANGED\00", align 1
@__FUNCTION__._selection_raise_signal = private unnamed_addr constant [24 x i8] c"_selection_raise_signal\00", align 1

; Function Attrs: nounwind uwtable
define internal void @_selection_raise_signal() #0 {
  call void @dt_act_on_reset_cache(i32 noundef 1)
  call void @dt_act_on_reset_cache(i32 noundef 0)
  br label %1

1:                                                ; preds = %0
  %2 = load i32, ptr getelementptr inbounds nuw (%struct.darktable_t, ptr @darktable, i32 0, i32 53), align 8, !tbaa !55
  %3 = and i32 %2, 1
  %4 = icmp ne i32 %3, 0
  br i1 %4, label %5, label %21

5:                                                ; preds = %1
  %6 = load i32, ptr getelementptr inbounds ([47 x i32], ptr getelementptr inbounds nuw (%struct.darktable_t, ptr @darktable, i32 0, i32 54), i64 0, i64 8), align 4, !tbaa !56
  %7 = icmp ne i32 %6, 0
  br i1 %7, label %8, label %21

8:                                                ; preds = %5
  br label %9

9:                                                ; preds = %8
  %10 = load i32, ptr getelementptr inbounds nuw (%struct.darktable_t, ptr @darktable, i32 0, i32 2), align 8, !tbaa !57
  %11 = and i32 1048576, %10
  %12 = icmp ne i32 %11, 0
  br i1 %12, label %13, label %19

13:                                               ; preds = %9
  %14 = load i32, ptr getelementptr inbounds nuw (%struct.darktable_t, ptr @darktable, i32 0, i32 2), align 8, !tbaa !57
  %15 = xor i32 %14, -1
  %16 = and i32 0, %15
  %17 = icmp ne i32 %16, 0
  br i1 %17, label %19, label %18

18:                                               ; preds = %13
  call void (ptr, ...) @dt_print_ext(ptr noundef @.str.26, ptr noundef @.str.27, ptr noundef @.str.3, i32 noundef 48, ptr noundef @__FUNCTION__._selection_raise_signal)
  br label %19

19:                                               ; preds = %18, %13, %9
  br label %20

20:                                               ; preds = %19
  br label %21

21:                                               ; preds = %20, %5, %1
  %22 = load ptr, ptr getelementptr inbounds nuw (%struct.darktable_t, ptr @darktable, i32 0, i32 13), align 8, !tbaa !58
  call void (ptr, i32, ...) @dt_control_signal_raise(ptr noundef %22, i32 noundef 8)
  br label %23

23:                                               ; preds = %21
  ret void
}

; Function Attrs: nounwind uwtable
define void @dt_selection_select_list(ptr noundef %0, ptr noundef %1) #0 {
  %3 = alloca ptr, align 8
  %4 = alloca ptr, align 8
  %5 = alloca i32, align 4
  %6 = alloca i32, align 4
  %7 = alloca ptr, align 8
  %8 = alloca i32, align 4
  store ptr %0, ptr %3, align 8, !tbaa !6
  store ptr %1, ptr %4, align 8, !tbaa !52
  %9 = load ptr, ptr %4, align 8, !tbaa !52
  %10 = icmp ne ptr %9, null
  br i1 %10, label %12, label %11

11:                                               ; preds = %2
  br label %100

12:                                               ; preds = %2
  br label %13

13:                                               ; preds = %96, %12
  %14 = load ptr, ptr %4, align 8, !tbaa !52
  %15 = icmp ne ptr %14, null
  br i1 %15, label %16, label %98

16:                                               ; preds = %13
  call void @llvm.lifetime.start.p0(i64 4, ptr %5) #5
  store i32 1, ptr %5, align 4, !tbaa !56
  call void @llvm.lifetime.start.p0(i64 4, ptr %6) #5
  %17 = load ptr, ptr %4, align 8, !tbaa !52
  %18 = getelementptr inbounds nuw %struct._GList, ptr %17, i32 0, i32 0
  %19 = load ptr, ptr %18, align 8, !tbaa !53
  %20 = ptrtoint ptr %19 to i64
  %21 = trunc i64 %20 to i32
  store i32 %21, ptr %6, align 4, !tbaa !56
  %22 = load i32, ptr %6, align 4, !tbaa !56
  %23 = load ptr, ptr %3, align 8, !tbaa !6
  %24 = getelementptr inbounds nuw %struct.dt_selection_t, ptr %23, i32 0, i32 1
  store i32 %22, ptr %24, align 8, !tbaa !15
  call void @llvm.lifetime.start.p0(i64 8, ptr %7) #5
  %25 = load i32, ptr %6, align 4, !tbaa !56
  %26 = call noalias ptr (ptr, ...) @g_strdup_printf(ptr noundef @.str.19, i32 noundef %25)
  store ptr %26, ptr %7, align 8, !tbaa !60
  %27 = load ptr, ptr %4, align 8, !tbaa !52
  %28 = icmp ne ptr %27, null
  br i1 %28, label %29, label %33

29:                                               ; preds = %16
  %30 = load ptr, ptr %4, align 8, !tbaa !52
  %31 = getelementptr inbounds nuw %struct._GList, ptr %30, i32 0, i32 1
  %32 = load ptr, ptr %31, align 8, !tbaa !88
  br label %34

33:                                               ; preds = %16
  br label %34

34:                                               ; preds = %33, %29
  %35 = phi ptr [ %32, %29 ], [ null, %33 ]
  store ptr %35, ptr %4, align 8, !tbaa !52
  br label %36

36:                                               ; preds = %63, %34
  %37 = load ptr, ptr %4, align 8, !tbaa !52
  %38 = icmp ne ptr %37, null
  br i1 %38, label %39, label %42

39:                                               ; preds = %36
  %40 = load i32, ptr %5, align 4, !tbaa !56
  %41 = icmp slt i32 %40, 400
  br label %42

42:                                               ; preds = %39, %36
  %43 = phi i1 [ false, %36 ], [ %41, %39 ]
  br i1 %43, label %44, label %65

44:                                               ; preds = %42
  %45 = load ptr, ptr %4, align 8, !tbaa !52
  %46 = getelementptr inbounds nuw %struct._GList, ptr %45, i32 0, i32 0
  %47 = load ptr, ptr %46, align 8, !tbaa !53
  %48 = ptrtoint ptr %47 to i64
  %49 = trunc i64 %48 to i32
  store i32 %49, ptr %6, align 4, !tbaa !56
  %50 = load i32, ptr %5, align 4, !tbaa !56
  %51 = add nsw i32 %50, 1
  store i32 %51, ptr %5, align 4, !tbaa !56
  %52 = load i32, ptr %6, align 4, !tbaa !56
  %53 = load ptr, ptr %3, align 8, !tbaa !6
  %54 = getelementptr inbounds nuw %struct.dt_selection_t, ptr %53, i32 0, i32 1
  store i32 %52, ptr %54, align 8, !tbaa !15
  %55 = load i32, ptr %6, align 4, !tbaa !56
  call void (ptr, ptr, ...) @dt_util_str_cat(ptr noundef %7, ptr noundef @.str.20, i32 noundef %55)
  %56 = load ptr, ptr %4, align 8, !tbaa !52
  %57 = icmp ne ptr %56, null
  br i1 %57, label %58, label %62

58:                                               ; preds = %44
  %59 = load ptr, ptr %4, align 8, !tbaa !52
  %60 = getelementptr inbounds nuw %struct._GList, ptr %59, i32 0, i32 1
  %61 = load ptr, ptr %60, align 8, !tbaa !88
  br label %63

62:                                               ; preds = %44
  br label %63

63:                                               ; preds = %62, %58
  %64 = phi ptr [ %61, %58 ], [ null, %62 ]
  store ptr %64, ptr %4, align 8, !tbaa !52
  br label %36

65:                                               ; preds = %42
  br label %66

66:                                               ; preds = %65
  br label %67

67:                                               ; preds = %66
  %68 = load i32, ptr getelementptr inbounds nuw (%struct.darktable_t, ptr @darktable, i32 0, i32 2), align 8, !tbaa !57
  %69 = and i32 256, %68
  %70 = icmp ne i32 %69, 0
  br i1 %70, label %71, label %78

71:                                               ; preds = %67
  %72 = load i32, ptr getelementptr inbounds nuw (%struct.darktable_t, ptr @darktable, i32 0, i32 2), align 8, !tbaa !57
  %73 = xor i32 %72, -1
  %74 = and i32 0, %73
  %75 = icmp ne i32 %74, 0
  br i1 %75, label %78, label %76

76:                                               ; preds = %71
  %77 = load ptr, ptr %7, align 8, !tbaa !60
  call void (ptr, ...) @dt_print_ext(ptr noundef @.str.5, ptr noundef @.str.3, i32 noundef 487, ptr noundef @__FUNCTION__.dt_selection_select_list, ptr noundef %77)
  br label %78

78:                                               ; preds = %76, %71, %67
  br label %79

79:                                               ; preds = %78
  br label %80

80:                                               ; preds = %79
  call void @llvm.lifetime.start.p0(i64 4, ptr %8) #5
  %81 = load ptr, ptr getelementptr inbounds nuw (%struct.darktable_t, ptr @darktable, i32 0, i32 18), align 8, !tbaa !61
  %82 = call ptr @dt_database_get(ptr noundef %81)
  %83 = load ptr, ptr %7, align 8, !tbaa !60
  %84 = call i32 @sqlite3_exec(ptr noundef %82, ptr noundef %83, ptr noundef null, ptr noundef null, ptr noundef null)
  store i32 %84, ptr %8, align 4, !tbaa !56
  %85 = load i32, ptr %8, align 4, !tbaa !56
  %86 = icmp ne i32 %85, 0
  br i1 %86, label %87, label %94

87:                                               ; preds = %80
  %88 = load ptr, ptr @stderr, align 8, !tbaa !62
  %89 = load ptr, ptr %7, align 8, !tbaa !60
  %90 = load ptr, ptr getelementptr inbounds nuw (%struct.darktable_t, ptr @darktable, i32 0, i32 18), align 8, !tbaa !61
  %91 = call ptr @dt_database_get(ptr noundef %90)
  %92 = call ptr @sqlite3_errmsg(ptr noundef %91)
  %93 = call i32 (ptr, ptr, ...) @fprintf(ptr noundef %88, ptr noundef @.str.7, ptr noundef @.str.3, i32 noundef 487, ptr noundef @__FUNCTION__.dt_selection_select_list, ptr noundef %89, ptr noundef %92) #5
  br label %94

94:                                               ; preds = %87, %80
  call void @llvm.lifetime.end.p0(i64 4, ptr %8) #5
  br label %95

95:                                               ; preds = %94
  br label %96

96:                                               ; preds = %95
  %97 = load ptr, ptr %7, align 8, !tbaa !60
  call void @g_free(ptr noundef %97)
  call void @llvm.lifetime.end.p0(i64 8, ptr %7) #5
  call void @llvm.lifetime.end.p0(i64 4, ptr %6) #5
  call void @llvm.lifetime.end.p0(i64 4, ptr %5) #5
  br label %13

98:                                               ; preds = %13
  call void @_selection_raise_signal()
  %99 = load ptr, ptr getelementptr inbounds nuw (%struct.darktable_t, ptr @darktable, i32 0, i32 21), align 8, !tbaa !16
  call void @dt_collection_hint_message(ptr noundef %99)
  br label %100

100:                                              ; preds = %98, %11
  ret void
}