; Function Attrs: nounwind uwtable
define void @dt_selection_select_list(ptr noundef writeonly captures(none) %0, ptr noundef readonly %1) local_unnamed_addr #1 {
  %3 = alloca ptr, align 8
  %.not = icmp eq ptr %1, null
  br i1 %.not, label %47, label %.preheader

.preheader:                                       ; preds = %2
  %4 = getelementptr inbounds nuw i8, ptr %0, i64 8
  br label %5

5:                                                ; preds = %.preheader, %33
  %.026 = phi ptr [ %1, %.preheader ], [ %.1.lcssa, %33 ]
  %6 = load ptr, ptr %.026, align 8, !tbaa !51
  %7 = ptrtoint ptr %6 to i64
  %8 = trunc i64 %7 to i32
  store i32 %8, ptr %4, align 8, !tbaa !50
  call void @llvm.lifetime.start.p0(i64 8, ptr nonnull %3) #8
  %9 = call noalias ptr (ptr, ...) @g_strdup_printf(ptr noundef nonnull @.str.19, i32 noundef %8) #8
  store ptr %9, ptr %3, align 8, !tbaa !81
  %.1.in22 = getelementptr inbounds nuw i8, ptr %.026, i64 8
  %.123 = load ptr, ptr %.1.in22, align 8, !tbaa !82
  %.not27 = icmp eq ptr %.123, null
  br i1 %.not27, label %._crit_edge, label %.lr.ph

.lr.ph:                                           ; preds = %5, %.lr.ph
  %.125 = phi ptr [ %.1, %.lr.ph ], [ %.123, %5 ]
  %.01724 = phi i32 [ %13, %.lr.ph ], [ 1, %5 ]
  %10 = load ptr, ptr %.125, align 8, !tbaa !51
  %11 = ptrtoint ptr %10 to i64
  %12 = trunc i64 %11 to i32
  %13 = add nuw nsw i32 %.01724, 1
  store i32 %12, ptr %4, align 8, !tbaa !50
  call void (ptr, ptr, ...) @dt_util_str_cat(ptr noundef nonnull %3, ptr noundef nonnull @.str.20, i32 noundef %12) #8
  %.1.in = getelementptr inbounds nuw i8, ptr %.125, i64 8
  %.1 = load ptr, ptr %.1.in, align 8, !tbaa !82
  %14 = icmp ne ptr %.1, null
  %15 = icmp samesign ult i32 %.01724, 399
  %16 = select i1 %14, i1 %15, i1 false
  br i1 %16, label %.lr.ph, label %._crit_edge

._crit_edge:                                      ; preds = %.lr.ph, %5
  %.1.lcssa = phi ptr [ null, %5 ], [ %.1, %.lr.ph ]
  %17 = load i32, ptr getelementptr inbounds nuw (i8, ptr @darktable, i64 8), align 8, !tbaa !54
  %18 = and i32 %17, 256
  %.not20 = icmp eq i32 %18, 0
  br i1 %.not20, label %21, label %19

19:                                               ; preds = %._crit_edge
  %20 = load ptr, ptr %3, align 8, !tbaa !81
  call void (ptr, ...) @dt_print_ext(ptr noundef nonnull @.str.5, ptr noundef nonnull @.str.3, i32 noundef 487, ptr noundef nonnull @__FUNCTION__.dt_selection_select_list, ptr noundef %20) #8
  br label %21

21:                                               ; preds = %19, %._crit_edge
  %22 = load ptr, ptr getelementptr inbounds nuw (i8, ptr @darktable, i64 136), align 8, !tbaa !56
  %23 = call ptr @dt_database_get(ptr noundef %22) #8
  %24 = load ptr, ptr %3, align 8, !tbaa !81
  %25 = call i32 @sqlite3_exec(ptr noundef %23, ptr noundef %24, ptr noundef null, ptr noundef null, ptr noundef null) #8
  %.not21 = icmp eq i32 %25, 0
  br i1 %.not21, label %33, label %26

26:                                               ; preds = %21
  %27 = load ptr, ptr @stderr, align 8, !tbaa !57
  %28 = load ptr, ptr %3, align 8, !tbaa !81
  %29 = load ptr, ptr getelementptr inbounds nuw (i8, ptr @darktable, i64 136), align 8, !tbaa !56
  %30 = call ptr @dt_database_get(ptr noundef %29) #8
  %31 = call ptr @sqlite3_errmsg(ptr noundef %30) #8
  %32 = call i32 (ptr, ptr, ...) @fprintf(ptr noundef %27, ptr noundef nonnull @.str.7, ptr noundef nonnull @.str.3, i32 noundef 487, ptr noundef nonnull @__FUNCTION__.dt_selection_select_list, ptr noundef %28, ptr noundef %31) #9
  br label %33

33:                                               ; preds = %26, %21
  %34 = load ptr, ptr %3, align 8, !tbaa !81
  call void @g_free(ptr noundef %34) #8
  call void @llvm.lifetime.end.p0(i64 8, ptr nonnull %3) #8
  %.not19 = icmp eq ptr %.1.lcssa, null
  br i1 %.not19, label %35, label %5

35:                                               ; preds = %33
  call void @dt_act_on_reset_cache(i32 noundef 1) #8
  call void @dt_act_on_reset_cache(i32 noundef 0) #8
  %36 = load i32, ptr getelementptr inbounds nuw (i8, ptr @darktable, i64 3128), align 8, !tbaa !53
  %37 = and i32 %36, 1
  %38 = icmp ne i32 %37, 0
  %39 = load i32, ptr getelementptr inbounds nuw (i8, ptr @darktable, i64 3164), align 4
  %40 = icmp ne i32 %39, 0
  %or.cond.i = select i1 %38, i1 %40, i1 false
  br i1 %or.cond.i, label %41, label %_selection_raise_signal.exit

41:                                               ; preds = %35
  %42 = load i32, ptr getelementptr inbounds nuw (i8, ptr @darktable, i64 8), align 8, !tbaa !54
  %43 = and i32 %42, 1048576
  %.not.i = icmp eq i32 %43, 0
  br i1 %.not.i, label %_selection_raise_signal.exit, label %44

44:                                               ; preds = %41
  call void (ptr, ...) @dt_print_ext(ptr noundef nonnull @.str.26, ptr noundef nonnull @.str.27, ptr noundef nonnull @.str.3, i32 noundef 48, ptr noundef nonnull @__FUNCTION__._selection_raise_signal) #8
  br label %_selection_raise_signal.exit

_selection_raise_signal.exit:                     ; preds = %35, %41, %44
  %45 = load ptr, ptr getelementptr inbounds nuw (i8, ptr @darktable, i64 96), align 8, !tbaa !55
  call void (ptr, i32, ...) @dt_control_signal_raise(ptr noundef %45, i32 noundef 8) #8
  %46 = load ptr, ptr getelementptr inbounds nuw (i8, ptr @darktable, i64 160), align 8, !tbaa !13
  call void @dt_collection_hint_message(ptr noundef %46) #8
  br label %47

47:                                               ; preds = %2, %_selection_raise_signal.exit
  ret void
}